; Function Attrs: nounwind uwtable
define internal void @php_phpdbg_destroy_bp_symbol(ptr noundef readonly captures(none) %0) #0 {
  %2 = load ptr, ptr %0, align 8, !tbaa !4
  %3 = getelementptr inbounds nuw i8, ptr %2, i64 24
  %4 = load ptr, ptr %3, align 8, !tbaa !258
  tail call void @_efree(ptr noundef %4) #27
  %5 = load ptr, ptr %0, align 8, !tbaa !4
  tail call void @_efree(ptr noundef %5) #27
  ret void
}